target datalayout = "e-m:e-p270:32:32-p271:32:32-p272:64:64-i64:64-i128:128-f80:128-n8:16:32:64-S128"
target triple = "x86_64-pc-linux-gnu"

%"class.std::__cxx11::basic_string" = type { %"struct.std::__cxx11::basic_string<char>::_Alloc_hider", i64, %union.anon }
%"struct.std::__cxx11::basic_string<char>::_Alloc_hider" = type { ptr }
%union.anon = type { i64, [8 x i8] }
%"struct.open_spiel::chess::Move" = type { %"struct.open_spiel::chess_common::Square", %"struct.open_spiel::chess_common::Square", %"struct.open_spiel::chess::Piece", i8, i32 }
%"struct.open_spiel::chess_common::Square" = type { i8, i8 }
%"struct.open_spiel::chess::Piece" = type { i8, i8 }
%"class.std::shared_ptr" = type { %"class.std::__shared_ptr" }
%"class.std::__shared_ptr" = type { ptr, %"class.std::__shared_count" }
%"class.std::__shared_count" = type { ptr }
%"class.open_spiel::chess::ChessState" = type { %"class.open_spiel::State.base", %"class.std::vector.9", %"class.open_spiel::chess::ChessBoard", %"class.open_spiel::chess::ChessBoard", %"class.std::__cxx11::basic_string", %"class.absl::debian2::flat_hash_map", %"class.absl::debian2::optional.23" }
%"class.open_spiel::State.base" = type <{ ptr, %"class.std::shared_ptr", i32, i32, %"class.std::vector", i32 }>
%"class.std::vector" = type { %"struct.std::_Vector_base" }
%"struct.std::_Vector_base" = type { %"struct.std::_Vector_base<open_spiel::State::PlayerAction, std::allocator<open_spiel::State::PlayerAction>>::_Vector_impl" }
%"struct.std::_Vector_base<open_spiel::State::PlayerAction, std::allocator<open_spiel::State::PlayerAction>>::_Vector_impl" = type { %"struct.std::_Vector_base<open_spiel::State::PlayerAction, std::allocator<open_spiel::State::PlayerAction>>::_Vector_impl_data" }
%"struct.std::_Vector_base<open_spiel::State::PlayerAction, std::allocator<open_spiel::State::PlayerAction>>::_Vector_impl_data" = type { ptr, ptr, ptr }
%"class.std::vector.9" = type { %"struct.std::_Vector_base.10" }
%"struct.std::_Vector_base.10" = type { %"struct.std::_Vector_base<open_spiel::chess::Move, std::allocator<open_spiel::chess::Move>>::_Vector_impl" }
%"struct.std::_Vector_base<open_spiel::chess::Move, std::allocator<open_spiel::chess::Move>>::_Vector_impl" = type { %"struct.std::_Vector_base<open_spiel::chess::Move, std::allocator<open_spiel::chess::Move>>::_Vector_impl_data" }
%"struct.std::_Vector_base<open_spiel::chess::Move, std::allocator<open_spiel::chess::Move>>::_Vector_impl_data" = type { ptr, ptr, ptr }
%"class.open_spiel::chess::ChessBoard" = type { i32, i8, i8, %"struct.std::array", i8, %"struct.open_spiel::chess_common::Square", i32, i32, [2 x %struct.anon], i64 }
%"struct.std::array" = type { [64 x %"struct.open_spiel::chess::Piece"] }
%struct.anon = type { %"class.absl::debian2::optional", %"class.absl::debian2::optional" }
%"class.absl::debian2::optional" = type { %"class.absl::debian2::optional_internal::optional_data" }
%"class.absl::debian2::optional_internal::optional_data" = type { %"class.absl::debian2::optional_internal::optional_data_base" }
%"class.absl::debian2::optional_internal::optional_data_base" = type { %"class.absl::debian2::optional_internal::optional_data_dtor_base" }
%"class.absl::debian2::optional_internal::optional_data_dtor_base" = type { i8, %union.anon.14 }
%union.anon.14 = type { %"struct.open_spiel::chess_common::Square" }
%"class.absl::debian2::flat_hash_map" = type { %"class.absl::debian2::container_internal::raw_hash_map" }
%"class.absl::debian2::container_internal::raw_hash_map" = type { %"class.absl::debian2::container_internal::raw_hash_set" }
%"class.absl::debian2::container_internal::raw_hash_set" = type { ptr, ptr, i64, i64, %"class.absl::debian2::container_internal::CompressedTuple" }
%"class.absl::debian2::container_internal::CompressedTuple" = type { %"struct.absl::debian2::container_internal::internal_compressed_tuple::CompressedTupleImpl" }
%"struct.absl::debian2::container_internal::internal_compressed_tuple::CompressedTupleImpl" = type { %"struct.absl::debian2::container_internal::internal_compressed_tuple::Storage" }
%"struct.absl::debian2::container_internal::internal_compressed_tuple::Storage" = type { i64 }
%"class.absl::debian2::optional.23" = type { %"class.absl::debian2::optional_internal::optional_data.24" }
%"class.absl::debian2::optional_internal::optional_data.24" = type { %"class.absl::debian2::optional_internal::optional_data_base.25" }
%"class.absl::debian2::optional_internal::optional_data_base.25" = type { %"class.absl::debian2::optional_internal::optional_data_dtor_base.26" }
%"class.absl::debian2::optional_internal::optional_data_dtor_base.26" = type { i8, %union.anon.27 }
%union.anon.27 = type { %"class.std::vector.28" }
%"class.std::vector.28" = type { %"struct.std::_Vector_base.29" }
%"struct.std::_Vector_base.29" = type { %"struct.std::_Vector_base<long, std::allocator<long>>::_Vector_impl" }
%"struct.std::_Vector_base<long, std::allocator<long>>::_Vector_impl" = type { %"struct.std::_Vector_base<long, std::allocator<long>>::_Vector_impl_data" }
%"struct.std::_Vector_base<long, std::allocator<long>>::_Vector_impl_data" = type { ptr, ptr, ptr }
%"class.absl::debian2::AlphaNum" = type { %"class.absl::debian2::string_view", [32 x i8] }
%"class.absl::debian2::string_view" = type { ptr, i64 }
%class.anon.113 = type { i8 }

@.str.12 = private unnamed_addr constant [130 x i8] c"generated/home/dtcxzyw/WorkSpace/Projects/compilers/llvm-opt-benchmark/bench/openspiel/open_spiel/open_spiel/games/chess/chess.cc\00", align 1
@.str.13 = private unnamed_addr constant [2 x i8] c":\00", align 1
@.str.18 = private unnamed_addr constant [2 x i8] c" \00", align 1
@.str.21 = private unnamed_addr constant [4 x i8] c" = \00", align 1
@.str.33 = private unnamed_addr constant [7 x i8] c", 0 = \00", align 1
@.str.40 = private unnamed_addr constant [12 x i8] c"action >= 0\00", align 1
@.str.41 = private unnamed_addr constant [8 x i8] c"\0Aaction\00", align 1
@.str.46 = private unnamed_addr constant [13 x i8] c"action < 960\00", align 1
@.str.47 = private unnamed_addr constant [9 x i8] c", 960 = \00", align 1
@.str.48 = private unnamed_addr constant [19 x i8] c"ChanceNodeOutcome_\00", align 1

; Function Attrs: mustprogress nounwind uwtable
define linkonce_odr void @_ZZN4absl7debian211string_view19CheckLengthInternalEmENKUlvE_clEv(ptr noundef nonnull align 1 dereferenceable(1) %0) #5 comdat align 2 {
  %2 = alloca ptr, align 8
  store ptr %0, ptr %2, align 8
  br label %3

3:                                                ; preds = %1
  call void @llvm.trap()
  unreachable

4:                                                ; No predecessors!
  ret void
}

; Function Attrs: mustprogress uwtable
define linkonce_odr noundef i64 @_ZN4absl7debian211string_view19CheckLengthInternalEm(i64 noundef %0) #4 comdat align 2 {
  %2 = alloca i64, align 8
  %3 = alloca %class.anon.113, align 1
  store i64 %0, ptr %2, align 8
  %4 = load i64, ptr %2, align 8
  %5 = icmp ule i64 %4, 9223372036854775807
  br i1 %5, label %6, label %7

6:                                                ; preds = %1
  br label %8

7:                                                ; preds = %1
  call void @_ZZN4absl7debian211string_view19CheckLengthInternalEmENKUlvE_clEv(ptr noundef nonnull align 1 dereferenceable(1) %3)
  br label %8

8:                                                ; preds = %7, %6
  %9 = load i64, ptr %2, align 8
  ret i64 %9
}

; Function Attrs: mustprogress nounwind uwtable
define linkonce_odr noundef i64 @_ZN4absl7debian211string_view14StrlenInternalEPKc(ptr noundef %0) #5 comdat align 2 {
  %2 = alloca ptr, align 8
  store ptr %0, ptr %2, align 8
  %3 = load ptr, ptr %2, align 8
  %4 = call i64 @strlen(ptr noundef %3) #3
  ret i64 %4
}

; Function Attrs: mustprogress uwtable
define linkonce_odr void @_ZN4absl7debian211string_viewC2EPKcm(ptr noundef nonnull align 8 dereferenceable(16) %0, ptr noundef %1, i64 noundef %2) unnamed_addr #4 comdat align 2 {
  %4 = alloca ptr, align 8
  %5 = alloca ptr, align 8
  %6 = alloca i64, align 8
  store ptr %0, ptr %4, align 8
  store ptr %1, ptr %5, align 8
  store i64 %2, ptr %6, align 8
  %7 = load ptr, ptr %4, align 8
  %8 = getelementptr inbounds nuw %"class.absl::debian2::string_view", ptr %7, i32 0, i32 0
  %9 = load ptr, ptr %5, align 8
  store ptr %9, ptr %8, align 8
  %10 = getelementptr inbounds nuw %"class.absl::debian2::string_view", ptr %7, i32 0, i32 1
  %11 = load i64, ptr %6, align 8
  %12 = call noundef i64 @_ZN4absl7debian211string_view19CheckLengthInternalEm(i64 noundef %11)
  store i64 %12, ptr %10, align 8
  ret void
}

; Function Attrs: mustprogress uwtable
define linkonce_odr void @_ZN4absl7debian211string_viewC2EPKc(ptr noundef nonnull align 8 dereferenceable(16) %0, ptr noundef %1) unnamed_addr #4 comdat align 2 {
  %3 = alloca ptr, align 8
  %4 = alloca ptr, align 8
  store ptr %0, ptr %3, align 8
  store ptr %1, ptr %4, align 8
  %5 = load ptr, ptr %3, align 8
  %6 = getelementptr inbounds nuw %"class.absl::debian2::string_view", ptr %5, i32 0, i32 0
  %7 = load ptr, ptr %4, align 8
  store ptr %7, ptr %6, align 8
  %8 = getelementptr inbounds nuw %"class.absl::debian2::string_view", ptr %5, i32 0, i32 1
  %9 = load ptr, ptr %4, align 8
  %10 = icmp ne ptr %9, null
  br i1 %10, label %11, label %15

11:                                               ; preds = %2
  %12 = load ptr, ptr %4, align 8
  %13 = call noundef i64 @_ZN4absl7debian211string_view14StrlenInternalEPKc(ptr noundef %12)
  %14 = call noundef i64 @_ZN4absl7debian211string_view19CheckLengthInternalEm(i64 noundef %13)
  br label %16

15:                                               ; preds = %2
  br label %16

16:                                               ; preds = %15, %11
  %17 = phi i64 [ %14, %11 ], [ 0, %15 ]
  store i64 %17, ptr %8, align 8
  ret void
}

; Function Attrs: mustprogress nounwind uwtable
define linkonce_odr noundef nonnull align 8 dereferenceable(168) ptr @_ZNK10open_spiel5chess10ChessState5BoardEv(ptr noundef nonnull align 8 dereferenceable(528) %0) #5 comdat align 2 {
  %2 = alloca ptr, align 8
  store ptr %0, ptr %2, align 8
  %3 = load ptr, ptr %2, align 8
  %4 = getelementptr inbounds nuw %"class.open_spiel::chess::ChessState", ptr %3, i32 0, i32 3
  ret ptr %4
}

; Function Attrs: mustprogress uwtable
define linkonce_odr void @_ZN4absl7debian28AlphaNumC2El(ptr noundef nonnull align 8 dereferenceable(48) %0, i64 noundef %1) unnamed_addr #4 comdat align 2 {
  %3 = alloca ptr, align 8
  %4 = alloca i64, align 8
  store ptr %0, ptr %3, align 8
  store i64 %1, ptr %4, align 8
  %5 = load ptr, ptr %3, align 8
  %6 = getelementptr inbounds nuw %"class.absl::debian2::AlphaNum", ptr %5, i32 0, i32 0
  %7 = getelementptr inbounds nuw %"class.absl::debian2::AlphaNum", ptr %5, i32 0, i32 1
  %8 = getelementptr inbounds [32 x i8], ptr %7, i64 0, i64 0
  %9 = load i64, ptr %4, align 8
  %10 = getelementptr inbounds nuw %"class.absl::debian2::AlphaNum", ptr %5, i32 0, i32 1
  %11 = getelementptr inbounds [32 x i8], ptr %10, i64 0, i64 0
  %12 = call noundef ptr @_ZN4absl7debian216numbers_internal15FastIntToBufferElPc(i64 noundef %9, ptr noundef %11)
  %13 = getelementptr inbounds nuw %"class.absl::debian2::AlphaNum", ptr %5, i32 0, i32 1
  %14 = getelementptr inbounds [32 x i8], ptr %13, i64 0, i64 0
  %15 = ptrtoint ptr %12 to i64
  %16 = ptrtoint ptr %14 to i64
  %17 = sub i64 %15, %16
  call void @_ZN4absl7debian211string_viewC2EPKcm(ptr noundef nonnull align 8 dereferenceable(16) %6, ptr noundef %8, i64 noundef %17)
  ret void
}

; Function Attrs: mustprogress uwtable
define linkonce_odr void @_ZN4absl7debian28AlphaNumC2EPKc(ptr noundef nonnull align 8 dereferenceable(48) %0, ptr noundef %1) unnamed_addr #4 comdat align 2 {
  %3 = alloca ptr, align 8
  %4 = alloca ptr, align 8
  store ptr %0, ptr %3, align 8
  store ptr %1, ptr %4, align 8
  %5 = load ptr, ptr %3, align 8
  %6 = getelementptr inbounds nuw %"class.absl::debian2::AlphaNum", ptr %5, i32 0, i32 0
  %7 = load ptr, ptr %4, align 8
  call void @_ZN4absl7debian211string_viewC2EPKc(ptr noundef nonnull align 8 dereferenceable(16) %6, ptr noundef %7)
  ret void
}

; Function Attrs: mustprogress uwtable
define void @_ZNK10open_spiel5chess10ChessState14ActionToStringB5cxx11Eil(ptr dead_on_unwind noalias writable sret(%"class.std::__cxx11::basic_string") align 8 %0, ptr noundef nonnull align 8 dereferenceable(528) %1, i32 noundef %2, i64 noundef %3) unnamed_addr #4 align 2 personality ptr @__gxx_personality_v0 {
  %5 = alloca ptr, align 8
  %6 = alloca ptr, align 8
  %7 = alloca i32, align 4
  %8 = alloca i64, align 8
  %9 = alloca i64, align 8
  %10 = alloca i32, align 4
  %11 = alloca %"class.std::__cxx11::basic_string", align 8
  %12 = alloca i32, align 4
  %13 = alloca ptr, align 8
  %14 = alloca i32, align 4
  %15 = alloca i64, align 8
  %16 = alloca i32, align 4
  %17 = alloca %"class.std::__cxx11::basic_string", align 8
  %18 = alloca i32, align 4
  %19 = alloca %"class.absl::debian2::AlphaNum", align 8
  %20 = alloca %"class.absl::debian2::AlphaNum", align 8
  %21 = alloca %"struct.open_spiel::chess::Move", align 4
  %22 = alloca { i64, i32 }, align 8
  store ptr %0, ptr %5, align 8
  store ptr %1, ptr %6, align 8
  store i32 %2, ptr %7, align 4
  store i64 %3, ptr %8, align 8
  %23 = load ptr, ptr %6, align 8
  %24 = load i32, ptr %7, align 4
  %25 = icmp eq i32 %24, -1
  br i1 %25, label %26, label %56

26:                                               ; preds = %4
  br label %27

27:                                               ; preds = %26
  %28 = load i64, ptr %8, align 8
  store i64 %28, ptr %9, align 8
  store i32 0, ptr %10, align 4
  %29 = load i64, ptr %9, align 8
  %30 = load i32, ptr %10, align 4
  %31 = sext i32 %30 to i64
  %32 = icmp sge i64 %29, %31
  br i1 %32, label %39, label %33

33:                                               ; preds = %27
  store i32 370, ptr %12, align 4
  call void @_ZN10open_spiel8internal11SpielStrCatIJRA130_KcRA2_S2_iS6_RA12_S2_RA8_S2_RA4_S2_RlRA7_S2_RiEEENSt7__cxx1112basic_stringIcSt11char_traitsIcESaIcEEEDpOT_(ptr dead_on_unwind writable sret(%"class.std::__cxx11::basic_string") align 8 %11, ptr noundef nonnull align 1 dereferenceable(130) @.str.12, ptr noundef nonnull align 1 dereferenceable(2) @.str.13, ptr noundef nonnull align 4 dereferenceable(4) %12, ptr noundef nonnull align 1 dereferenceable(2) @.str.18, ptr noundef nonnull align 1 dereferenceable(12) @.str.40, ptr noundef nonnull align 1 dereferenceable(8) @.str.41, ptr noundef nonnull align 1 dereferenceable(4) @.str.21, ptr noundef nonnull align 8 dereferenceable(8) %9, ptr noundef nonnull align 1 dereferenceable(7) @.str.33, ptr noundef nonnull align 4 dereferenceable(4) %10)
  invoke void @_ZN10open_spiel15SpielFatalErrorERKNSt7__cxx1112basic_stringIcSt11char_traitsIcESaIcEEE(ptr noundef nonnull align 8 dereferenceable(32) %11) #21
          to label %34 unwind label %35

34:                                               ; preds = %33
  unreachable

35:                                               ; preds = %33
  %36 = landingpad { ptr, i32 }
          cleanup
  %37 = extractvalue { ptr, i32 } %36, 0
  store ptr %37, ptr %13, align 8
  %38 = extractvalue { ptr, i32 } %36, 1
  store i32 %38, ptr %14, align 4
  call void @_ZNSt7__cxx1112basic_stringIcSt11char_traitsIcESaIcEED1Ev(ptr noundef nonnull align 8 dereferenceable(32) %11) #3
  br label %61

39:                                               ; preds = %27
  br label %40

40:                                               ; preds = %39
  br label %41

41:                                               ; preds = %40
  %42 = load i64, ptr %8, align 8
  store i64 %42, ptr %15, align 8
  store i32 960, ptr %16, align 4
  %43 = load i64, ptr %15, align 8
  %44 = load i32, ptr %16, align 4
  %45 = sext i32 %44 to i64
  %46 = icmp slt i64 %43, %45
  br i1 %46, label %53, label %47

47:                                               ; preds = %41
  store i32 371, ptr %18, align 4
  call void @_ZN10open_spiel8internal11SpielStrCatIJRA130_KcRA2_S2_iS6_RA13_S2_RA8_S2_RA4_S2_RlRA9_S2_RiEEENSt7__cxx1112basic_stringIcSt11char_traitsIcESaIcEEEDpOT_(ptr dead_on_unwind writable sret(%"class.std::__cxx11::basic_string") align 8 %17, ptr noundef nonnull align 1 dereferenceable(130) @.str.12, ptr noundef nonnull align 1 dereferenceable(2) @.str.13, ptr noundef nonnull align 4 dereferenceable(4) %18, ptr noundef nonnull align 1 dereferenceable(2) @.str.18, ptr noundef nonnull align 1 dereferenceable(13) @.str.46, ptr noundef nonnull align 1 dereferenceable(8) @.str.41, ptr noundef nonnull align 1 dereferenceable(4) @.str.21, ptr noundef nonnull align 8 dereferenceable(8) %15, ptr noundef nonnull align 1 dereferenceable(9) @.str.47, ptr noundef nonnull align 4 dereferenceable(4) %16)
  invoke void @_ZN10open_spiel15SpielFatalErrorERKNSt7__cxx1112basic_stringIcSt11char_traitsIcESaIcEEE(ptr noundef nonnull align 8 dereferenceable(32) %17) #21
          to label %48 unwind label %49

48:                                               ; preds = %47
  unreachable

49:                                               ; preds = %47
  %50 = landingpad { ptr, i32 }
          cleanup
  %51 = extractvalue { ptr, i32 } %50, 0
  store ptr %51, ptr %13, align 8
  %52 = extractvalue { ptr, i32 } %50, 1
  store i32 %52, ptr %14, align 4
  call void @_ZNSt7__cxx1112basic_stringIcSt11char_traitsIcESaIcEED1Ev(ptr noundef nonnull align 8 dereferenceable(32) %17) #3
  br label %61

53:                                               ; preds = %41
  br label %54

54:                                               ; preds = %53
  call void @_ZN4absl7debian28AlphaNumC2EPKc(ptr noundef nonnull align 8 dereferenceable(48) %19, ptr noundef @.str.48)
  %55 = load i64, ptr %8, align 8
  call void @_ZN4absl7debian28AlphaNumC2El(ptr noundef nonnull align 8 dereferenceable(48) %20, i64 noundef %55)
  call void @_ZN4absl7debian26StrCatB5cxx11ERKNS0_8AlphaNumES3_(ptr dead_on_unwind writable sret(%"class.std::__cxx11::basic_string") align 8 %0, ptr noundef nonnull align 8 dereferenceable(48) %19, ptr noundef nonnull align 8 dereferenceable(48) %20)
  br label %60

56:                                               ; preds = %4
  %57 = call noundef nonnull align 8 dereferenceable(168) ptr @_ZNK10open_spiel5chess10ChessState5BoardEv(ptr noundef nonnull align 8 dereferenceable(528) %23)
  %58 = call { i64, i32 } @_ZN10open_spiel5chess12ActionToMoveERKlRKNS0_10ChessBoardE(ptr noundef nonnull align 8 dereferenceable(8) %8, ptr noundef nonnull align 8 dereferenceable(168) %57)
  store { i64, i32 } %58, ptr %22, align 8
  call void @llvm.memcpy.p0.p0.i64(ptr align 4 %21, ptr align 8 %22, i64 12, i1 false)
  %59 = call noundef nonnull align 8 dereferenceable(168) ptr @_ZNK10open_spiel5chess10ChessState5BoardEv(ptr noundef nonnull align 8 dereferenceable(528) %23)
  call void @_ZNK10open_spiel5chess4Move5ToSANB5cxx11ERKNS0_10ChessBoardE(ptr dead_on_unwind writable sret(%"class.std::__cxx11::basic_string") align 8 %0, ptr noundef nonnull align 4 dereferenceable(12) %21, ptr noundef nonnull align 8 dereferenceable(168) %59)
  br label %60

60:                                               ; preds = %56, %54
  ret void

61:                                               ; preds = %49, %35
  %62 = load ptr, ptr %13, align 8
  %63 = load i32, ptr %14, align 4
  %64 = insertvalue { ptr, i32 } poison, ptr %62, 0
  %65 = insertvalue { ptr, i32 } %64, i32 %63, 1
  resume { ptr, i32 } %65
}