; Function Attrs: mustprogress uwtable
define void @_ZNK10open_spiel5chess10ChessState14ActionToStringB5cxx11Eil(ptr dead_on_unwind noalias writable sret(%"class.std::__cxx11::basic_string") align 8 %0, ptr noundef nonnull align 8 dereferenceable(528) %1, i32 noundef %2, i64 noundef %3) unnamed_addr #4 align 2 personality ptr @__gxx_personality_v0 {
  %5 = alloca i64, align 8
  %6 = alloca i64, align 8
  %7 = alloca i32, align 4
  %8 = alloca %"class.std::__cxx11::basic_string", align 8
  %9 = alloca i32, align 4
  %10 = alloca i64, align 8
  %11 = alloca i32, align 4
  %12 = alloca %"class.std::__cxx11::basic_string", align 8
  %13 = alloca i32, align 4
  %14 = alloca %"class.absl::debian2::AlphaNum", align 8
  %15 = alloca %"class.absl::debian2::AlphaNum", align 8
  %16 = alloca %"struct.open_spiel::chess::Move", align 8
  store i64 %3, ptr %5, align 8
  %17 = icmp eq i32 %2, -1
  br i1 %17, label %18, label %39

18:                                               ; preds = %4
  store i64 %3, ptr %6, align 8
  store i32 0, ptr %7, align 4
  %19 = icmp sgt i64 %3, -1
  br i1 %19, label %24, label %20

20:                                               ; preds = %18
  store i32 370, ptr %9, align 4
  call void @_ZN10open_spiel8internal11SpielStrCatIJRA130_KcRA2_S2_iS6_RA12_S2_RA8_S2_RA4_S2_RlRA7_S2_RiEEENSt7__cxx1112basic_stringIcSt11char_traitsIcESaIcEEEDpOT_(ptr dead_on_unwind nonnull writable sret(%"class.std::__cxx11::basic_string") align 8 %8, ptr noundef nonnull align 1 dereferenceable(130) @.str.12, ptr noundef nonnull align 1 dereferenceable(2) @.str.13, ptr noundef nonnull align 4 dereferenceable(4) %9, ptr noundef nonnull align 1 dereferenceable(2) @.str.18, ptr noundef nonnull align 1 dereferenceable(12) @.str.40, ptr noundef nonnull align 1 dereferenceable(8) @.str.41, ptr noundef nonnull align 1 dereferenceable(4) @.str.21, ptr noundef nonnull align 8 dereferenceable(8) %6, ptr noundef nonnull align 1 dereferenceable(7) @.str.33, ptr noundef nonnull align 4 dereferenceable(4) %7)
  invoke void @_ZN10open_spiel15SpielFatalErrorERKNSt7__cxx1112basic_stringIcSt11char_traitsIcESaIcEEE(ptr noundef nonnull align 8 dereferenceable(32) %8) #31
          to label %21 unwind label %22

21:                                               ; preds = %20
  unreachable

22:                                               ; preds = %20
  %23 = landingpad { ptr, i32 }
          cleanup
  br label %43

24:                                               ; preds = %18
  store i64 %3, ptr %10, align 8
  store i32 960, ptr %11, align 4
  %25 = icmp samesign ult i64 %3, 960
  br i1 %25, label %_ZN4absl7debian28AlphaNumC2EPKc.exit, label %26

26:                                               ; preds = %24
  store i32 371, ptr %13, align 4
  call void @_ZN10open_spiel8internal11SpielStrCatIJRA130_KcRA2_S2_iS6_RA13_S2_RA8_S2_RA4_S2_RlRA9_S2_RiEEENSt7__cxx1112basic_stringIcSt11char_traitsIcESaIcEEEDpOT_(ptr dead_on_unwind nonnull writable sret(%"class.std::__cxx11::basic_string") align 8 %12, ptr noundef nonnull align 1 dereferenceable(130) @.str.12, ptr noundef nonnull align 1 dereferenceable(2) @.str.13, ptr noundef nonnull align 4 dereferenceable(4) %13, ptr noundef nonnull align 1 dereferenceable(2) @.str.18, ptr noundef nonnull align 1 dereferenceable(13) @.str.46, ptr noundef nonnull align 1 dereferenceable(8) @.str.41, ptr noundef nonnull align 1 dereferenceable(4) @.str.21, ptr noundef nonnull align 8 dereferenceable(8) %10, ptr noundef nonnull align 1 dereferenceable(9) @.str.47, ptr noundef nonnull align 4 dereferenceable(4) %11)
  invoke void @_ZN10open_spiel15SpielFatalErrorERKNSt7__cxx1112basic_stringIcSt11char_traitsIcESaIcEEE(ptr noundef nonnull align 8 dereferenceable(32) %12) #31
          to label %27 unwind label %28

27:                                               ; preds = %26
  unreachable

28:                                               ; preds = %26
  %29 = landingpad { ptr, i32 }
          cleanup
  br label %43

_ZN4absl7debian28AlphaNumC2EPKc.exit:             ; preds = %24
  store ptr @.str.48, ptr %14, align 8
  %30 = getelementptr inbounds nuw i8, ptr %14, i64 8
  store i64 18, ptr %30, align 8
  %31 = getelementptr inbounds nuw i8, ptr %15, i64 16
  %32 = call noundef ptr @_ZN4absl7debian216numbers_internal15FastIntToBufferElPc(i64 noundef %3, ptr noundef nonnull %31)
  %33 = ptrtoint ptr %32 to i64
  %34 = ptrtoint ptr %31 to i64
  %35 = sub i64 %33, %34
  store ptr %31, ptr %15, align 8
  %36 = icmp sgt i64 %35, -1
  br i1 %36, label %_ZN4absl7debian28AlphaNumC2El.exit, label %37

37:                                               ; preds = %_ZN4absl7debian28AlphaNumC2EPKc.exit
  call void @llvm.trap()
  unreachable

_ZN4absl7debian28AlphaNumC2El.exit:               ; preds = %_ZN4absl7debian28AlphaNumC2EPKc.exit
  %38 = getelementptr inbounds nuw i8, ptr %15, i64 8
  store i64 %35, ptr %38, align 8
  call void @_ZN4absl7debian26StrCatB5cxx11ERKNS0_8AlphaNumES3_(ptr dead_on_unwind writable sret(%"class.std::__cxx11::basic_string") align 8 %0, ptr noundef nonnull align 8 dereferenceable(48) %14, ptr noundef nonnull align 8 dereferenceable(48) %15)
  br label %42

39:                                               ; preds = %4
  %40 = getelementptr inbounds nuw i8, ptr %1, i64 256
  %41 = call { i64, i32 } @_ZN10open_spiel5chess12ActionToMoveERKlRKNS0_10ChessBoardE(ptr noundef nonnull align 8 dereferenceable(8) %5, ptr noundef nonnull align 8 dereferenceable(168) %40)
  %.fca.0.extract = extractvalue { i64, i32 } %41, 0
  %.fca.1.extract = extractvalue { i64, i32 } %41, 1
  store i64 %.fca.0.extract, ptr %16, align 8
  %.sroa.2.0..sroa_idx = getelementptr inbounds nuw i8, ptr %16, i64 8
  store i32 %.fca.1.extract, ptr %.sroa.2.0..sroa_idx, align 8
  call void @_ZNK10open_spiel5chess4Move5ToSANB5cxx11ERKNS0_10ChessBoardE(ptr dead_on_unwind writable sret(%"class.std::__cxx11::basic_string") align 8 %0, ptr noundef nonnull align 4 dereferenceable(12) %16, ptr noundef nonnull align 8 dereferenceable(168) %40)
  br label %42

42:                                               ; preds = %39, %_ZN4absl7debian28AlphaNumC2El.exit
  ret void

43:                                               ; preds = %28, %22
  %.sink = phi ptr [ %12, %28 ], [ %8, %22 ]
  %.pn = phi { ptr, i32 } [ %29, %28 ], [ %23, %22 ]
  call void @_ZNSt7__cxx1112basic_stringIcSt11char_traitsIcESaIcEED1Ev(ptr noundef nonnull align 8 dereferenceable(32) %.sink) #30
  resume { ptr, i32 } %.pn
}